; Function Attrs: nounwind uwtable
define hidden noundef zeroext i1 @_mi_os_commit_ex(ptr noundef %0, i64 noundef %1, ptr noundef writeonly %2, i64 noundef %3) local_unnamed_addr #1 {
  %5 = alloca i8, align 1
  %6 = icmp ne ptr %2, null
  br i1 %6, label %7, label %8

7:                                                ; preds = %4
  store i8 0, ptr %2, align 1, !tbaa !24
  br label %8

8:                                                ; preds = %7, %4
  tail call void @_mi_stat_increase(ptr noundef nonnull getelementptr inbounds nuw (i8, ptr @_mi_stats_main, i64 96), i64 noundef %3) #7
  tail call void @_mi_stat_counter_increase(ptr noundef nonnull getelementptr inbounds nuw (i8, ptr @_mi_stats_main, i64 512), i64 noundef 1) #7
  %9 = icmp eq i64 %1, 0
  %10 = icmp eq ptr %0, null
  %or.cond.i = or i1 %10, %9
  br i1 %or.cond.i, label %mi_os_page_align_areax.exit.thread, label %11

11:                                               ; preds = %8
  %12 = load i64, ptr @mi_os_mem_config, align 8, !tbaa !12
  %13 = ptrtoint ptr %0 to i64
  %14 = tail call range(i64 0, 65) i64 @llvm.ctpop.i64(i64 %12)
  %15 = icmp samesign ult i64 %14, 2
  %16 = getelementptr inbounds nuw i8, ptr %0, i64 %1
  %17 = ptrtoint ptr %16 to i64
  %18 = add i64 %17, -1
  %19 = add i64 %18, %12
  br i1 %15, label %20, label %24

20:                                               ; preds = %11
  %21 = sub i64 0, %12
  %22 = and i64 %21, %13
  %23 = and i64 %19, %21
  br label %mi_align_down_ptr.exit27.i

24:                                               ; preds = %11
  %25 = urem i64 %13, %12
  %26 = sub nuw i64 %13, %25
  %27 = urem i64 %19, %12
  %28 = sub nuw i64 %19, %27
  br label %mi_align_down_ptr.exit27.i

mi_align_down_ptr.exit27.i:                       ; preds = %24, %20
  %.in.i = phi i64 [ %22, %20 ], [ %26, %24 ]
  %.in30.i = phi i64 [ %23, %20 ], [ %28, %24 ]
  %29 = sub i64 %.in30.i, %.in.i
  %30 = icmp slt i64 %29, 1
  br i1 %30, label %mi_os_page_align_areax.exit.thread, label %31

31:                                               ; preds = %mi_align_down_ptr.exit27.i
  %32 = inttoptr i64 %.in.i to ptr
  call void @llvm.lifetime.start.p0(i64 1, ptr nonnull %5) #9
  store i8 0, ptr %5, align 1, !tbaa !24
  %33 = call i32 @_mi_prim_commit(ptr noundef %32, i64 noundef %29, ptr noundef nonnull %5) #7
  %.not = icmp eq i32 %33, 0
  br i1 %.not, label %35, label %34

34:                                               ; preds = %31
  call void (ptr, ...) @_mi_warning_message(ptr noundef nonnull @.str, i32 noundef %33, i32 noundef %33, ptr noundef %32, i64 noundef %29) #7
  br label %39

35:                                               ; preds = %31
  %36 = load i8, ptr %5, align 1, !tbaa !24, !range !9, !noundef !10
  %37 = trunc nuw i8 %36 to i1
  %or.cond = and i1 %6, %37
  br i1 %or.cond, label %38, label %39

38:                                               ; preds = %35
  store i8 1, ptr %2, align 1, !tbaa !24
  br label %39

39:                                               ; preds = %35, %38, %34
  call void @llvm.lifetime.end.p0(i64 1, ptr nonnull %5) #9
  br label %mi_os_page_align_areax.exit.thread

mi_os_page_align_areax.exit.thread:               ; preds = %mi_align_down_ptr.exit27.i, %8, %39
  %.0 = phi i1 [ %.not, %39 ], [ true, %8 ], [ true, %mi_align_down_ptr.exit27.i ]
  ret i1 %.0
}